(dp0
S'1120'
p1
(lp2
S'1000'
p3
aS'1003'
p4
aS'1020'
p5
aS'1023'
p6
aS'1100'
p7
aS'1103'
p8
aS'1120'
p9
aS'1123'
p10
aS'2000'
p11
aS'2003'
p12
aS'2020'
p13
aS'2023'
p14
aS'2100'
p15
aS'2103'
p16
aS'2120'
p17
aS'3000'
p18
asS'1123'
p19
(lp20
g3
ag4
ag5
ag6
ag7
ag8
ag9
ag10
ag11
ag12
ag13
ag14
ag15
ag16
ag17
aS'2123'
p21
ag18
asS'0123'
p22
(lp23
S'0000'
p24
aS'0003'
p25
aS'0020'
p26
aS'0023'
p27
aS'0103'
p28
aS'0120'
p29
aS'0123'
p30
ag3
ag4
ag5
ag6
ag7
ag8
ag9
ag10
ag11
ag12
ag13
ag14
ag15
ag16
ag17
ag18
asS'0120'
p31
(lp32
g24
ag25
ag26
ag27
aS'0100'
p33
ag28
ag29
ag30
ag3
ag4
ag5
ag6
ag7
ag8
ag9
ag11
ag12
ag13
ag15
ag18
asS'0023'
p34
(lp35
g24
ag25
ag26
ag27
ag33
ag28
ag29
ag30
ag3
ag4
ag5
ag6
ag7
ag8
ag9
ag11
ag12
ag13
asS'0020'
p36
(lp37
g24
ag25
ag26
ag27
ag33
ag28
ag29
ag3
ag4
ag5
ag7
ag11
asS'0000'
p38
(lp39
g24
ag25
ag26
ag33
ag3
asS'0003'
p40
(lp41
g24
ag25
ag26
ag27
ag33
ag28
ag3
ag4
ag5
ag7
ag11
asS'0100'
p42
(lp43
g24
ag25
ag26
ag27
ag33
ag28
ag29
ag3
ag4
ag5
ag7
ag11
asS'0103'
p44
(lp45
g24
ag25
ag26
ag27
ag33
ag28
ag29
ag30
ag3
ag4
ag5
ag6
ag7
ag8
ag9
ag11
ag12
ag13
ag15
ag18
asS'2120'
p46
(lp47
g11
ag12
ag13
ag14
ag15
ag16
ag17
ag21
ag18
asS'2123'
p48
(lp49
g11
ag12
ag13
ag14
ag15
ag16
ag17
ag21
ag18
asS'1020'
p50
(lp51
g3
ag4
ag5
ag6
ag7
ag8
ag9
ag11
ag12
ag13
ag15
ag18
asS'1023'
p52
(lp53
g3
ag4
ag5
ag6
ag7
ag8
ag9
ag10
ag11
ag12
ag13
ag14
ag15
ag16
ag17
ag18
asS'2003'
p54
(lp55
g11
ag12
ag13
ag15
ag16
ag18
asS'2000'
p56
(lp57
g11
ag12
ag13
ag15
ag18
asS'2020'
p58
(lp59
g11
ag12
ag13
ag14
ag15
ag16
ag17
ag18
asS'1103'
p60
(lp61
g3
ag4
ag5
ag6
ag7
ag8
ag9
ag10
ag11
ag12
ag13
ag14
ag15
ag16
ag17
ag18
asS'1100'
p62
(lp63
g3
ag4
ag5
ag6
ag7
ag8
ag9
ag11
ag12
ag13
ag15
ag18
asS'2023'
p64
(lp65
g11
ag12
ag13
ag14
ag15
ag16
ag17
ag21
ag18
asS'2103'
p66
(lp67
g11
ag12
ag13
ag14
ag15
ag16
ag17
ag21
ag18
asS'2100'
p68
(lp69
g11
ag12
ag13
ag14
ag15
ag16
ag17
ag18
asS'1003'
p70
(lp71
g3
ag4
ag5
ag6
ag7
ag8
ag11
ag12
ag13
ag15
ag18
asS'1000'
p72
(lp73
g3
ag4
ag5
ag7
ag11
as.